target datalayout = "e-m:e-p270:32:32-p271:32:32-p272:64:64-i64:64-i128:128-f80:128-n8:16:32:64-S128"
target triple = "x86_64-pc-linux-gnu"

%struct.rax = type { ptr, i64, i64, [0 x ptr] }

; Function Attrs: nounwind uwtable
define dso_local ptr @raxGetData(ptr noundef %0) #0 {
  %2 = alloca ptr, align 8
  %3 = alloca ptr, align 8
  %4 = alloca ptr, align 8
  %5 = alloca ptr, align 8
  store ptr %0, ptr %3, align 8, !tbaa !11
  %6 = load ptr, ptr %3, align 8, !tbaa !11
  %7 = load i32, ptr %6, align 4
  %8 = lshr i32 %7, 1
  %9 = and i32 %8, 1
  %10 = icmp ne i32 %9, 0
  br i1 %10, label %11, label %12

11:                                               ; preds = %1
  store ptr null, ptr %2, align 8
  br label %64

12:                                               ; preds = %1
  call void @llvm.lifetime.start.p0(i64 8, ptr %4) #13
  %13 = load ptr, ptr %3, align 8, !tbaa !11
  %14 = load ptr, ptr %3, align 8, !tbaa !11
  %15 = load i32, ptr %14, align 4
  %16 = lshr i32 %15, 3
  %17 = zext i32 %16 to i64
  %18 = add i64 4, %17
  %19 = load ptr, ptr %3, align 8, !tbaa !11
  %20 = load i32, ptr %19, align 4
  %21 = lshr i32 %20, 3
  %22 = add nsw i32 %21, 4
  %23 = sext i32 %22 to i64
  %24 = urem i64 %23, 8
  %25 = sub i64 8, %24
  %26 = and i64 %25, 7
  %27 = add i64 %18, %26
  %28 = load ptr, ptr %3, align 8, !tbaa !11
  %29 = load i32, ptr %28, align 4
  %30 = lshr i32 %29, 2
  %31 = and i32 %30, 1
  %32 = icmp ne i32 %31, 0
  br i1 %32, label %33, label %34

33:                                               ; preds = %12
  br label %40

34:                                               ; preds = %12
  %35 = load ptr, ptr %3, align 8, !tbaa !11
  %36 = load i32, ptr %35, align 4
  %37 = lshr i32 %36, 3
  %38 = zext i32 %37 to i64
  %39 = mul i64 8, %38
  br label %40

40:                                               ; preds = %34, %33
  %41 = phi i64 [ 8, %33 ], [ %39, %34 ]
  %42 = add i64 %27, %41
  %43 = load ptr, ptr %3, align 8, !tbaa !11
  %44 = load i32, ptr %43, align 4
  %45 = and i32 %44, 1
  %46 = icmp ne i32 %45, 0
  br i1 %46, label %47, label %54

47:                                               ; preds = %40
  %48 = load ptr, ptr %3, align 8, !tbaa !11
  %49 = load i32, ptr %48, align 4
  %50 = lshr i32 %49, 1
  %51 = and i32 %50, 1
  %52 = icmp ne i32 %51, 0
  %53 = xor i1 %52, true
  br label %54

54:                                               ; preds = %47, %40
  %55 = phi i1 [ false, %40 ], [ %53, %47 ]
  %56 = zext i1 %55 to i32
  %57 = sext i32 %56 to i64
  %58 = mul i64 %57, 8
  %59 = add i64 %42, %58
  %60 = getelementptr inbounds nuw i8, ptr %13, i64 %59
  %61 = getelementptr inbounds i8, ptr %60, i64 -8
  store ptr %61, ptr %4, align 8, !tbaa !16
  call void @llvm.lifetime.start.p0(i64 8, ptr %5) #13
  %62 = load ptr, ptr %4, align 8, !tbaa !16
  call void @llvm.memcpy.p0.p0.i64(ptr align 8 %5, ptr align 8 %62, i64 8, i1 false)
  %63 = load ptr, ptr %5, align 8, !tbaa !16
  store ptr %63, ptr %2, align 8
  call void @llvm.lifetime.end.p0(i64 8, ptr %5) #13
  call void @llvm.lifetime.end.p0(i64 8, ptr %4) #13
  br label %64

64:                                               ; preds = %54, %11
  %65 = load ptr, ptr %2, align 8
  ret ptr %65
}

; Function Attrs: nounwind uwtable
define dso_local void @raxRecursiveFreeWithCtx(ptr noundef %0, ptr noundef %1, ptr noundef %2, ptr noundef %3) #0 {
  %5 = alloca ptr, align 8
  %6 = alloca ptr, align 8
  %7 = alloca ptr, align 8
  %8 = alloca ptr, align 8
  %9 = alloca i32, align 4
  %10 = alloca ptr, align 8
  %11 = alloca ptr, align 8
  store ptr %0, ptr %5, align 8, !tbaa !14
  store ptr %1, ptr %6, align 8, !tbaa !11
  store ptr %2, ptr %7, align 8, !tbaa !16
  store ptr %3, ptr %8, align 8, !tbaa !16
  call void @llvm.lifetime.start.p0(i64 4, ptr %9) #13
  %12 = load ptr, ptr %6, align 8, !tbaa !11
  %13 = load i32, ptr %12, align 4
  %14 = lshr i32 %13, 2
  %15 = and i32 %14, 1
  %16 = icmp ne i32 %15, 0
  br i1 %16, label %17, label %18

17:                                               ; preds = %4
  br label %22

18:                                               ; preds = %4
  %19 = load ptr, ptr %6, align 8, !tbaa !11
  %20 = load i32, ptr %19, align 4
  %21 = lshr i32 %20, 3
  br label %22

22:                                               ; preds = %18, %17
  %23 = phi i32 [ 1, %17 ], [ %21, %18 ]
  store i32 %23, ptr %9, align 4, !tbaa !5
  call void @llvm.lifetime.start.p0(i64 8, ptr %10) #13
  %24 = load ptr, ptr %6, align 8, !tbaa !11
  %25 = load ptr, ptr %6, align 8, !tbaa !11
  %26 = load i32, ptr %25, align 4
  %27 = lshr i32 %26, 3
  %28 = zext i32 %27 to i64
  %29 = add i64 4, %28
  %30 = load ptr, ptr %6, align 8, !tbaa !11
  %31 = load i32, ptr %30, align 4
  %32 = lshr i32 %31, 3
  %33 = add nsw i32 %32, 4
  %34 = sext i32 %33 to i64
  %35 = urem i64 %34, 8
  %36 = sub i64 8, %35
  %37 = and i64 %36, 7
  %38 = add i64 %29, %37
  %39 = load ptr, ptr %6, align 8, !tbaa !11
  %40 = load i32, ptr %39, align 4
  %41 = lshr i32 %40, 2
  %42 = and i32 %41, 1
  %43 = icmp ne i32 %42, 0
  br i1 %43, label %44, label %45

44:                                               ; preds = %22
  br label %51

45:                                               ; preds = %22
  %46 = load ptr, ptr %6, align 8, !tbaa !11
  %47 = load i32, ptr %46, align 4
  %48 = lshr i32 %47, 3
  %49 = zext i32 %48 to i64
  %50 = mul i64 8, %49
  br label %51

51:                                               ; preds = %45, %44
  %52 = phi i64 [ 8, %44 ], [ %50, %45 ]
  %53 = add i64 %38, %52
  %54 = load ptr, ptr %6, align 8, !tbaa !11
  %55 = load i32, ptr %54, align 4
  %56 = and i32 %55, 1
  %57 = icmp ne i32 %56, 0
  br i1 %57, label %58, label %65

58:                                               ; preds = %51
  %59 = load ptr, ptr %6, align 8, !tbaa !11
  %60 = load i32, ptr %59, align 4
  %61 = lshr i32 %60, 1
  %62 = and i32 %61, 1
  %63 = icmp ne i32 %62, 0
  %64 = xor i1 %63, true
  br label %65

65:                                               ; preds = %58, %51
  %66 = phi i1 [ false, %51 ], [ %64, %58 ]
  %67 = zext i1 %66 to i32
  %68 = sext i32 %67 to i64
  %69 = mul i64 %68, 8
  %70 = add i64 %53, %69
  %71 = getelementptr inbounds nuw i8, ptr %24, i64 %70
  %72 = getelementptr inbounds i8, ptr %71, i64 -8
  %73 = load ptr, ptr %6, align 8, !tbaa !11
  %74 = load i32, ptr %73, align 4
  %75 = and i32 %74, 1
  %76 = icmp ne i32 %75, 0
  br i1 %76, label %77, label %84

77:                                               ; preds = %65
  %78 = load ptr, ptr %6, align 8, !tbaa !11
  %79 = load i32, ptr %78, align 4
  %80 = lshr i32 %79, 1
  %81 = and i32 %80, 1
  %82 = icmp ne i32 %81, 0
  %83 = xor i1 %82, true
  br label %84

84:                                               ; preds = %77, %65
  %85 = phi i1 [ false, %65 ], [ %83, %77 ]
  %86 = select i1 %85, i64 8, i64 0
  %87 = sub i64 0, %86
  %88 = getelementptr inbounds i8, ptr %72, i64 %87
  store ptr %88, ptr %10, align 8, !tbaa !18
  br label %89

89:                                               ; preds = %93, %84
  %90 = load i32, ptr %9, align 4, !tbaa !5
  %91 = add nsw i32 %90, -1
  store i32 %91, ptr %9, align 4, !tbaa !5
  %92 = icmp ne i32 %90, 0
  br i1 %92, label %93, label %101

93:                                               ; preds = %89
  call void @llvm.lifetime.start.p0(i64 8, ptr %11) #13
  %94 = load ptr, ptr %10, align 8, !tbaa !18
  call void @llvm.memcpy.p0.p0.i64(ptr align 8 %11, ptr align 8 %94, i64 8, i1 false)
  %95 = load ptr, ptr %5, align 8, !tbaa !14
  %96 = load ptr, ptr %11, align 8, !tbaa !11
  %97 = load ptr, ptr %7, align 8, !tbaa !16
  %98 = load ptr, ptr %8, align 8, !tbaa !16
  call void @raxRecursiveFreeWithCtx(ptr noundef %95, ptr noundef %96, ptr noundef %97, ptr noundef %98)
  %99 = load ptr, ptr %10, align 8, !tbaa !18
  %100 = getelementptr inbounds ptr, ptr %99, i32 -1
  store ptr %100, ptr %10, align 8, !tbaa !18
  call void @llvm.lifetime.end.p0(i64 8, ptr %11) #13
  br label %89, !llvm.loop !43

101:                                              ; preds = %89
  %102 = load ptr, ptr %7, align 8, !tbaa !16
  %103 = icmp ne ptr %102, null
  br i1 %103, label %104, label %120

104:                                              ; preds = %101
  %105 = load ptr, ptr %6, align 8, !tbaa !11
  %106 = load i32, ptr %105, align 4
  %107 = and i32 %106, 1
  %108 = icmp ne i32 %107, 0
  br i1 %108, label %109, label %120

109:                                              ; preds = %104
  %110 = load ptr, ptr %6, align 8, !tbaa !11
  %111 = load i32, ptr %110, align 4
  %112 = lshr i32 %111, 1
  %113 = and i32 %112, 1
  %114 = icmp ne i32 %113, 0
  br i1 %114, label %120, label %115

115:                                              ; preds = %109
  %116 = load ptr, ptr %7, align 8, !tbaa !16
  %117 = load ptr, ptr %6, align 8, !tbaa !11
  %118 = call ptr @raxGetData(ptr noundef %117)
  %119 = load ptr, ptr %8, align 8, !tbaa !16
  call void %116(ptr noundef %118, ptr noundef %119)
  br label %120

120:                                              ; preds = %115, %109, %104, %101
  %121 = load ptr, ptr %6, align 8, !tbaa !11
  call void @zfree(ptr noundef %121)
  %122 = load ptr, ptr %5, align 8, !tbaa !14
  %123 = getelementptr inbounds nuw %struct.rax, ptr %122, i32 0, i32 2
  %124 = load i64, ptr %123, align 8, !tbaa !9
  %125 = add i64 %124, -1
  store i64 %125, ptr %123, align 8, !tbaa !9
  call void @llvm.lifetime.end.p0(i64 8, ptr %10) #13
  call void @llvm.lifetime.end.p0(i64 4, ptr %9) #13
  ret void
}