; Function Attrs: nounwind uwtable
define dso_local void @raxRecursiveFreeWithCtx(ptr noundef captures(none) %0, ptr noundef %1, ptr noundef captures(address_is_null) %2, ptr noundef %3) local_unnamed_addr #1 {
  %5 = load i32, ptr %1, align 4
  %6 = and i32 %5, 4
  %.not = icmp eq i32 %6, 0
  %7 = lshr i32 %5, 3
  %spec.select = select i1 %.not, i32 %7, i32 1
  %.not3236 = icmp eq i32 %spec.select, 0
  br i1 %.not3236, label %select.unfold._crit_edge, label %select.unfold.preheader

select.unfold.preheader:                          ; preds = %4
  %8 = zext nneg i32 %7 to i64
  %9 = getelementptr inbounds nuw i8, ptr %1, i64 %8
  %10 = getelementptr inbounds nuw i8, ptr %9, i64 4
  %11 = xor i32 %7, 3
  %.neg = add nuw nsw i32 %11, 1
  %12 = and i32 %.neg, 7
  %13 = zext nneg i32 %12 to i64
  %14 = getelementptr inbounds nuw i8, ptr %10, i64 %13
  %15 = shl nuw nsw i64 %8, 3
  %16 = select i1 %.not, i64 %15, i64 8
  %17 = getelementptr inbounds nuw i8, ptr %14, i64 %16
  %18 = and i32 %5, 1
  %.not28 = icmp eq i32 %18, 0
  %19 = shl i32 %5, 2
  %20 = and i32 %19, 8
  %21 = xor i32 %20, 8
  %narrow = select i1 %.not28, i32 0, i32 %21
  %22 = zext nneg i32 %narrow to i64
  %23 = getelementptr inbounds nuw i8, ptr %17, i64 %22
  %24 = getelementptr inbounds i8, ptr %23, i64 -8
  %25 = sub nsw i64 0, %22
  %26 = getelementptr inbounds i8, ptr %24, i64 %25
  br label %select.unfold

select.unfold:                                    ; preds = %select.unfold.preheader, %select.unfold
  %.038 = phi i32 [ %27, %select.unfold ], [ %spec.select, %select.unfold.preheader ]
  %.02537 = phi ptr [ %28, %select.unfold ], [ %26, %select.unfold.preheader ]
  %27 = add nsw i32 %.038, -1
  %.0.copyload = load ptr, ptr %.02537, align 8
  tail call void @raxRecursiveFreeWithCtx(ptr noundef %0, ptr noundef %.0.copyload, ptr noundef %2, ptr noundef %3)
  %28 = getelementptr inbounds i8, ptr %.02537, i64 -8
  %.not32 = icmp eq i32 %27, 0
  br i1 %.not32, label %select.unfold._crit_edge, label %select.unfold, !llvm.loop !31

select.unfold._crit_edge:                         ; preds = %select.unfold, %4
  %.not33 = icmp eq ptr %2, null
  br i1 %.not33, label %43, label %29

29:                                               ; preds = %select.unfold._crit_edge
  %30 = load i32, ptr %1, align 4
  %31 = and i32 %30, 3
  %or.cond = icmp eq i32 %31, 1
  br i1 %or.cond, label %raxGetData.exit, label %43

raxGetData.exit:                                  ; preds = %29
  %32 = lshr i32 %30, 3
  %33 = zext nneg i32 %32 to i64
  %34 = xor i32 %32, 3
  %.neg.i = add nuw nsw i32 %34, 1
  %35 = and i32 %.neg.i, 7
  %36 = zext nneg i32 %35 to i64
  %37 = and i32 %30, 4
  %.not11.i = icmp eq i32 %37, 0
  %38 = shl nuw nsw i64 %33, 3
  %spec.select.i = select i1 %.not11.i, i64 %38, i64 8
  %39 = getelementptr inbounds nuw i8, ptr %1, i64 %33
  %40 = getelementptr inbounds nuw i8, ptr %39, i64 4
  %41 = getelementptr inbounds nuw i8, ptr %40, i64 %36
  %42 = getelementptr inbounds nuw i8, ptr %41, i64 %spec.select.i
  %.0.copyload.i = load ptr, ptr %42, align 8
  tail call void %2(ptr noundef %.0.copyload.i, ptr noundef %3) #26
  br label %43

43:                                               ; preds = %raxGetData.exit, %29, %select.unfold._crit_edge
  tail call void @zfree(ptr noundef nonnull %1) #26
  %44 = getelementptr inbounds nuw i8, ptr %0, i64 16
  %45 = load i64, ptr %44, align 8, !tbaa !9
  %46 = add i64 %45, -1
  store i64 %46, ptr %44, align 8, !tbaa !9
  ret void
}